; Function Attrs: nounwind uwtable
define internal void @emit_tap_output(i32 noundef range(i32 0, 7) %0, ptr noundef %1, ...) unnamed_addr #0 {
  %3 = alloca [1 x %struct.__va_list_tag], align 16
  call void @llvm.lifetime.start.p0(i64 24, ptr nonnull %3) #22
  call void @llvm.va_start.p0(ptr nonnull %3)
  call fastcc void @emit_tap_output_v(i32 noundef %0, ptr noundef %1, ptr noundef %3)
  call void @llvm.va_end.p0(ptr nonnull %3)
  call void @llvm.lifetime.end.p0(i64 24, ptr nonnull %3) #22
  ret void
}